; Function Attrs: nounwind uwtable
define internal noundef ptr @atexit_register(ptr readnone captures(none) %0, ptr noundef %1, ptr noundef %2) #0 {
  %4 = getelementptr i8, ptr %1, i64 16
  %.val = load i64, ptr %4, align 8, !tbaa !29
  %5 = icmp eq i64 %.val, 0
  br i1 %5, label %6, label %8

6:                                                ; preds = %3
  %7 = load ptr, ptr @PyExc_TypeError, align 8, !tbaa !24
  tail call void @PyErr_SetString(ptr noundef %7, ptr noundef nonnull @.str.11) #6
  br label %Py_DECREF.exit19

8:                                                ; preds = %3
  %9 = getelementptr inbounds nuw i8, ptr %1, i64 24
  %10 = load ptr, ptr %9, align 8, !tbaa !24
  %11 = tail call i32 @PyCallable_Check(ptr noundef %10) #6
  %.not = icmp eq i32 %11, 0
  br i1 %.not, label %12, label %14

12:                                               ; preds = %8
  %13 = load ptr, ptr @PyExc_TypeError, align 8, !tbaa !24
  tail call void @PyErr_SetString(ptr noundef %13, ptr noundef nonnull @.str.12) #6
  br label %Py_DECREF.exit19

14:                                               ; preds = %8
  %.val21 = load i64, ptr %4, align 8, !tbaa !29
  %15 = tail call ptr @PyTuple_GetSlice(ptr noundef nonnull %1, i64 noundef 1, i64 noundef %.val21) #6
  %16 = icmp eq ptr %2, null
  %spec.store.select = select i1 %16, ptr @_Py_NoneStruct, ptr %2
  %17 = tail call ptr (i64, ...) @PyTuple_Pack(i64 noundef 3, ptr noundef %10, ptr noundef %15, ptr noundef nonnull %spec.store.select) #6
  %18 = icmp eq ptr %17, null
  br i1 %18, label %Py_DECREF.exit19, label %19

19:                                               ; preds = %14
  %20 = tail call align 8 ptr @llvm.threadlocal.address.p0(ptr align 8 @_Py_tss_tstate)
  %21 = load ptr, ptr %20, align 8, !tbaa !4
  %22 = getelementptr inbounds nuw i8, ptr %21, i64 16
  %23 = load ptr, ptr %22, align 8, !tbaa !38
  %24 = getelementptr inbounds nuw i8, ptr %23, i64 10736
  %25 = load ptr, ptr %24, align 8, !tbaa !16
  %26 = tail call i32 @PyList_Insert(ptr noundef %25, i64 noundef 0, ptr noundef nonnull %17) #6
  %27 = icmp slt i32 %26, 0
  %28 = load i32, ptr %17, align 8, !tbaa !25
  %.not.i18 = icmp sgt i32 %28, -1
  br i1 %27, label %29, label %34

29:                                               ; preds = %19
  br i1 %.not.i18, label %30, label %Py_DECREF.exit19

30:                                               ; preds = %29
  %31 = add nsw i32 %28, -1
  store i32 %31, ptr %17, align 8, !tbaa !25
  %32 = icmp eq i32 %31, 0
  br i1 %32, label %33, label %Py_DECREF.exit19

33:                                               ; preds = %30
  tail call void @_Py_Dealloc(ptr noundef nonnull %17) #6
  br label %Py_DECREF.exit19

34:                                               ; preds = %19
  br i1 %.not.i18, label %35, label %Py_DECREF.exit

35:                                               ; preds = %34
  %36 = add nsw i32 %28, -1
  store i32 %36, ptr %17, align 8, !tbaa !25
  %37 = icmp eq i32 %36, 0
  br i1 %37, label %38, label %Py_DECREF.exit

38:                                               ; preds = %35
  tail call void @_Py_Dealloc(ptr noundef nonnull %17) #6
  br label %Py_DECREF.exit

Py_DECREF.exit:                                   ; preds = %34, %35, %38
  %39 = load i32, ptr %10, align 8, !tbaa !25
  %40 = icmp slt i32 %39, 0
  br i1 %40, label %Py_DECREF.exit19, label %41

41:                                               ; preds = %Py_DECREF.exit
  %42 = add nuw i32 %39, 1
  store i32 %42, ptr %10, align 8, !tbaa !25
  br label %Py_DECREF.exit19

Py_DECREF.exit19:                                 ; preds = %41, %Py_DECREF.exit, %33, %30, %29, %12, %14, %6
  %.0 = phi ptr [ null, %6 ], [ null, %12 ], [ null, %14 ], [ null, %29 ], [ null, %30 ], [ null, %33 ], [ %10, %Py_DECREF.exit ], [ %10, %41 ]
  ret ptr %.0
}